target datalayout = "e-m:e-p270:32:32-p271:32:32-p272:64:64-i64:64-i128:128-f80:128-n8:16:32:64-S128"
target triple = "x86_64-pc-linux-gnu"

%struct.Vec2 = type { float, float }

@.str.56 = private unnamed_addr constant [5 x i8] c"vec2\00", align 1
@.str.198 = private unnamed_addr constant [4 x i8] c"Dot\00", align 1
@.str.201 = private unnamed_addr constant [35 x i8] c"%s is not a valid method of vector\00", align 1
@.str.204 = private unnamed_addr constant [4 x i8] c"Min\00", align 1

; Function Attrs: mustprogress uwtable
define dso_local noundef ptr @_Z13lua_vec2_pushP9lua_State(ptr noundef %0) #4 {
  %2 = alloca ptr, align 8
  %3 = alloca ptr, align 8
  store ptr %0, ptr %2, align 8
  %4 = load ptr, ptr %2, align 8
  %5 = call noundef ptr @_Z21lua_newuserdatataggedP9lua_Statemi(ptr noundef %4, i64 noundef 8, i32 noundef 12)
  store ptr %5, ptr %3, align 8
  %6 = load ptr, ptr %2, align 8
  call void @_Z24lua_getuserdatametatableP9lua_Statei(ptr noundef %6, i32 noundef 12)
  %7 = load ptr, ptr %2, align 8
  %8 = call noundef i32 @_Z16lua_setmetatableP9lua_Statei(ptr noundef %7, i32 noundef -2)
  %9 = load ptr, ptr %3, align 8
  ret ptr %9
}

; Function Attrs: mustprogress uwtable
define dso_local noundef ptr @_Z12lua_vec2_getP9lua_Statei(ptr noundef %0, i32 noundef %1) #4 {
  %3 = alloca ptr, align 8
  %4 = alloca i32, align 4
  %5 = alloca ptr, align 8
  store ptr %0, ptr %3, align 8
  store i32 %1, ptr %4, align 4
  %6 = load ptr, ptr %3, align 8
  %7 = load i32, ptr %4, align 4
  %8 = call noundef ptr @_Z20lua_touserdatataggedP9lua_Stateii(ptr noundef %6, i32 noundef %7, i32 noundef 12)
  store ptr %8, ptr %5, align 8
  %9 = load ptr, ptr %5, align 8
  %10 = icmp ne ptr %9, null
  br i1 %10, label %11, label %13

11:                                               ; preds = %2
  %12 = load ptr, ptr %5, align 8
  ret ptr %12

13:                                               ; preds = %2
  %14 = load ptr, ptr %3, align 8
  %15 = load i32, ptr %4, align 4
  call void @_Z15luaL_typeerrorLP9lua_StateiPKc(ptr noundef %14, i32 noundef %15, ptr noundef @.str.56) #19
  unreachable
}

; Function Attrs: mustprogress uwtable
define internal noundef i32 @_ZL12lua_vec2_minP9lua_State(ptr noundef %0) #4 {
  %2 = alloca ptr, align 8
  %3 = alloca ptr, align 8
  %4 = alloca ptr, align 8
  %5 = alloca ptr, align 8
  store ptr %0, ptr %2, align 8
  %6 = load ptr, ptr %2, align 8
  %7 = call noundef ptr @_Z12lua_vec2_getP9lua_Statei(ptr noundef %6, i32 noundef 1)
  store ptr %7, ptr %3, align 8
  %8 = load ptr, ptr %2, align 8
  %9 = call noundef ptr @_Z12lua_vec2_getP9lua_Statei(ptr noundef %8, i32 noundef 2)
  store ptr %9, ptr %4, align 8
  %10 = load ptr, ptr %2, align 8
  %11 = call noundef ptr @_Z13lua_vec2_pushP9lua_State(ptr noundef %10)
  store ptr %11, ptr %5, align 8
  %12 = load ptr, ptr %3, align 8
  %13 = getelementptr inbounds %struct.Vec2, ptr %12, i32 0, i32 0
  %14 = load float, ptr %13, align 4
  %15 = load ptr, ptr %4, align 8
  %16 = getelementptr inbounds %struct.Vec2, ptr %15, i32 0, i32 0
  %17 = load float, ptr %16, align 4
  %18 = fcmp olt float %14, %17
  br i1 %18, label %19, label %23

19:                                               ; preds = %1
  %20 = load ptr, ptr %3, align 8
  %21 = getelementptr inbounds %struct.Vec2, ptr %20, i32 0, i32 0
  %22 = load float, ptr %21, align 4
  br label %27

23:                                               ; preds = %1
  %24 = load ptr, ptr %4, align 8
  %25 = getelementptr inbounds %struct.Vec2, ptr %24, i32 0, i32 0
  %26 = load float, ptr %25, align 4
  br label %27

27:                                               ; preds = %23, %19
  %28 = phi float [ %22, %19 ], [ %26, %23 ]
  %29 = load ptr, ptr %5, align 8
  %30 = getelementptr inbounds %struct.Vec2, ptr %29, i32 0, i32 0
  store float %28, ptr %30, align 4
  %31 = load ptr, ptr %3, align 8
  %32 = getelementptr inbounds %struct.Vec2, ptr %31, i32 0, i32 1
  %33 = load float, ptr %32, align 4
  %34 = load ptr, ptr %4, align 8
  %35 = getelementptr inbounds %struct.Vec2, ptr %34, i32 0, i32 1
  %36 = load float, ptr %35, align 4
  %37 = fcmp olt float %33, %36
  br i1 %37, label %38, label %42

38:                                               ; preds = %27
  %39 = load ptr, ptr %3, align 8
  %40 = getelementptr inbounds %struct.Vec2, ptr %39, i32 0, i32 1
  %41 = load float, ptr %40, align 4
  br label %46

42:                                               ; preds = %27
  %43 = load ptr, ptr %4, align 8
  %44 = getelementptr inbounds %struct.Vec2, ptr %43, i32 0, i32 1
  %45 = load float, ptr %44, align 4
  br label %46

46:                                               ; preds = %42, %38
  %47 = phi float [ %41, %38 ], [ %45, %42 ]
  %48 = load ptr, ptr %5, align 8
  %49 = getelementptr inbounds %struct.Vec2, ptr %48, i32 0, i32 1
  store float %47, ptr %49, align 4
  ret i32 1
}

; Function Attrs: mustprogress uwtable
define internal noundef i32 @_ZL12lua_vec2_dotP9lua_State(ptr noundef %0) #4 {
  %2 = alloca ptr, align 8
  %3 = alloca ptr, align 8
  %4 = alloca ptr, align 8
  store ptr %0, ptr %2, align 8
  %5 = load ptr, ptr %2, align 8
  %6 = call noundef ptr @_Z12lua_vec2_getP9lua_Statei(ptr noundef %5, i32 noundef 1)
  store ptr %6, ptr %3, align 8
  %7 = load ptr, ptr %2, align 8
  %8 = call noundef ptr @_Z12lua_vec2_getP9lua_Statei(ptr noundef %7, i32 noundef 2)
  store ptr %8, ptr %4, align 8
  %9 = load ptr, ptr %2, align 8
  %10 = load ptr, ptr %3, align 8
  %11 = getelementptr inbounds %struct.Vec2, ptr %10, i32 0, i32 0
  %12 = load float, ptr %11, align 4
  %13 = load ptr, ptr %4, align 8
  %14 = getelementptr inbounds %struct.Vec2, ptr %13, i32 0, i32 0
  %15 = load float, ptr %14, align 4
  %16 = load ptr, ptr %3, align 8
  %17 = getelementptr inbounds %struct.Vec2, ptr %16, i32 0, i32 1
  %18 = load float, ptr %17, align 4
  %19 = load ptr, ptr %4, align 8
  %20 = getelementptr inbounds %struct.Vec2, ptr %19, i32 0, i32 1
  %21 = load float, ptr %20, align 4
  %22 = fmul float %18, %21
  %23 = call float @llvm.fmuladd.f32(float %12, float %15, float %22)
  %24 = fpext float %23 to double
  call void @_Z14lua_pushnumberP9lua_Stated(ptr noundef %9, double noundef %24)
  ret i32 1
}

; Function Attrs: mustprogress uwtable
define internal noundef i32 @_ZL17lua_vec2_namecallP9lua_State(ptr noundef %0) #4 {
  %2 = alloca i32, align 4
  %3 = alloca ptr, align 8
  %4 = alloca ptr, align 8
  store ptr %0, ptr %3, align 8
  %5 = load ptr, ptr %3, align 8
  %6 = call noundef ptr @_Z16lua_namecallatomP9lua_StatePi(ptr noundef %5, ptr noundef null)
  store ptr %6, ptr %4, align 8
  %7 = load ptr, ptr %4, align 8
  %8 = icmp ne ptr %7, null
  br i1 %8, label %9, label %24

9:                                                ; preds = %1
  %10 = load ptr, ptr %4, align 8
  %11 = call i32 @strcmp(ptr noundef %10, ptr noundef @.str.198) #18
  %12 = icmp eq i32 %11, 0
  br i1 %12, label %13, label %16

13:                                               ; preds = %9
  %14 = load ptr, ptr %3, align 8
  %15 = call noundef i32 @_ZL12lua_vec2_dotP9lua_State(ptr noundef %14)
  store i32 %15, ptr %2, align 4
  br label %28

16:                                               ; preds = %9
  %17 = load ptr, ptr %4, align 8
  %18 = call i32 @strcmp(ptr noundef %17, ptr noundef @.str.204) #18
  %19 = icmp eq i32 %18, 0
  br i1 %19, label %20, label %23

20:                                               ; preds = %16
  %21 = load ptr, ptr %3, align 8
  %22 = call noundef i32 @_ZL12lua_vec2_minP9lua_State(ptr noundef %21)
  store i32 %22, ptr %2, align 4
  br label %28

23:                                               ; preds = %16
  br label %24

24:                                               ; preds = %23, %1
  %25 = load ptr, ptr %3, align 8
  %26 = load ptr, ptr %3, align 8
  %27 = call noundef ptr @_Z17luaL_checklstringP9lua_StateiPm(ptr noundef %26, i32 noundef 1, ptr noundef null)
  call void (ptr, ptr, ...) @_Z11luaL_errorLP9lua_StatePKcz(ptr noundef %25, ptr noundef @.str.201, ptr noundef %27) #19
  unreachable

28:                                               ; preds = %20, %13
  %29 = load i32, ptr %2, align 4
  ret i32 %29
}