; Function Attrs: mustprogress uwtable
define internal noundef i32 @_ZL17lua_vec2_namecallP9lua_State(ptr noundef %0) #4 {
  %2 = tail call noundef ptr @_Z16lua_namecallatomP9lua_StatePi(ptr noundef %0, ptr noundef null)
  %.not = icmp eq ptr %2, null
  br i1 %.not, label %40, label %3

3:                                                ; preds = %1
  %4 = tail call i32 @strcmp(ptr noundef nonnull dereferenceable(1) %2, ptr noundef nonnull dereferenceable(4) @.str.198) #33
  %5 = icmp eq i32 %4, 0
  br i1 %5, label %6, label %20

6:                                                ; preds = %3
  %7 = tail call noundef ptr @_Z20lua_touserdatataggedP9lua_Stateii(ptr noundef %0, i32 noundef 1, i32 noundef 12)
  %.not.i.i = icmp eq ptr %7, null
  br i1 %.not.i.i, label %8, label %_Z12lua_vec2_getP9lua_Statei.exit.i

8:                                                ; preds = %6
  tail call void @_Z15luaL_typeerrorLP9lua_StateiPKc(ptr noundef %0, i32 noundef 1, ptr noundef nonnull @.str.56) #34
  unreachable

_Z12lua_vec2_getP9lua_Statei.exit.i:              ; preds = %6
  %9 = tail call noundef ptr @_Z20lua_touserdatataggedP9lua_Stateii(ptr noundef %0, i32 noundef 2, i32 noundef 12)
  %.not.i7.i = icmp eq ptr %9, null
  br i1 %.not.i7.i, label %10, label %_ZL12lua_vec2_dotP9lua_State.exit

10:                                               ; preds = %_Z12lua_vec2_getP9lua_Statei.exit.i
  tail call void @_Z15luaL_typeerrorLP9lua_StateiPKc(ptr noundef %0, i32 noundef 2, ptr noundef nonnull @.str.56) #34
  unreachable

_ZL12lua_vec2_dotP9lua_State.exit:                ; preds = %_Z12lua_vec2_getP9lua_Statei.exit.i
  %11 = load float, ptr %7, align 4
  %12 = load float, ptr %9, align 4
  %13 = getelementptr inbounds i8, ptr %7, i64 4
  %14 = load float, ptr %13, align 4
  %15 = getelementptr inbounds i8, ptr %9, i64 4
  %16 = load float, ptr %15, align 4
  %17 = fmul float %14, %16
  %18 = tail call float @llvm.fmuladd.f32(float %11, float %12, float %17)
  %19 = fpext float %18 to double
  tail call void @_Z14lua_pushnumberP9lua_Stated(ptr noundef %0, double noundef %19)
  br label %42

20:                                               ; preds = %3
  %21 = tail call i32 @strcmp(ptr noundef nonnull dereferenceable(1) %2, ptr noundef nonnull dereferenceable(4) @.str.204) #33
  %22 = icmp eq i32 %21, 0
  br i1 %22, label %23, label %40

23:                                               ; preds = %20
  %24 = tail call noundef ptr @_Z20lua_touserdatataggedP9lua_Stateii(ptr noundef %0, i32 noundef 1, i32 noundef 12)
  %.not.i.i9 = icmp eq ptr %24, null
  br i1 %.not.i.i9, label %25, label %_Z12lua_vec2_getP9lua_Statei.exit.i10

25:                                               ; preds = %23
  tail call void @_Z15luaL_typeerrorLP9lua_StateiPKc(ptr noundef %0, i32 noundef 1, ptr noundef nonnull @.str.56) #34
  unreachable

_Z12lua_vec2_getP9lua_Statei.exit.i10:            ; preds = %23
  %26 = tail call noundef ptr @_Z20lua_touserdatataggedP9lua_Stateii(ptr noundef %0, i32 noundef 2, i32 noundef 12)
  %.not.i16.i = icmp eq ptr %26, null
  br i1 %.not.i16.i, label %27, label %_ZL12lua_vec2_minP9lua_State.exit

27:                                               ; preds = %_Z12lua_vec2_getP9lua_Statei.exit.i10
  tail call void @_Z15luaL_typeerrorLP9lua_StateiPKc(ptr noundef %0, i32 noundef 2, ptr noundef nonnull @.str.56) #34
  unreachable

_ZL12lua_vec2_minP9lua_State.exit:                ; preds = %_Z12lua_vec2_getP9lua_Statei.exit.i10
  %28 = tail call noundef ptr @_Z21lua_newuserdatataggedP9lua_Statemi(ptr noundef %0, i64 noundef 8, i32 noundef 12)
  tail call void @_Z24lua_getuserdatametatableP9lua_Statei(ptr noundef %0, i32 noundef 12)
  %29 = tail call noundef i32 @_Z16lua_setmetatableP9lua_Statei(ptr noundef %0, i32 noundef -2)
  %30 = load float, ptr %24, align 4
  %31 = load float, ptr %26, align 4
  %32 = fcmp olt float %30, %31
  %..i = select i1 %32, float %30, float %31
  store float %..i, ptr %28, align 4
  %33 = getelementptr inbounds i8, ptr %24, i64 4
  %34 = load float, ptr %33, align 4
  %35 = getelementptr inbounds i8, ptr %26, i64 4
  %36 = load float, ptr %35, align 4
  %37 = fcmp olt float %34, %36
  %38 = select i1 %37, float %34, float %36
  %39 = getelementptr inbounds i8, ptr %28, i64 4
  store float %38, ptr %39, align 4
  br label %42

40:                                               ; preds = %20, %1
  %41 = tail call noundef ptr @_Z17luaL_checklstringP9lua_StateiPm(ptr noundef %0, i32 noundef 1, ptr noundef null)
  tail call void (ptr, ptr, ...) @_Z11luaL_errorLP9lua_StatePKcz(ptr noundef %0, ptr noundef nonnull @.str.201, ptr noundef %41) #34
  unreachable

42:                                               ; preds = %_ZL12lua_vec2_minP9lua_State.exit, %_ZL12lua_vec2_dotP9lua_State.exit
  ret i32 1
}